; Function Attrs: mustprogress nofree nounwind willreturn memory(argmem: readwrite) uwtable
define noundef nonnull ptr @_ZN6icu_7512PreparsedUCD10firstFieldEv(ptr noundef nonnull align 8 dereferenceable(14640) %this) local_unnamed_addr #14 align 2 {
entry:
  %lines = getelementptr inbounds i8, ptr %this, i64 2352
  %lineIndex = getelementptr inbounds i8, ptr %this, i64 24
  %0 = load i32, ptr %lineIndex, align 8
  %idxprom = sext i32 %0 to i64
  %arrayidx = getelementptr inbounds [3 x [4096 x i8]], ptr %lines, i64 0, i64 %idxprom
  %strlen = tail call i64 @strlen(ptr noundef nonnull dereferenceable(1) %arrayidx)
  %strchr = getelementptr inbounds i8, ptr %arrayidx, i64 %strlen
  %fieldLimit = getelementptr inbounds i8, ptr %this, i64 40
  store ptr %strchr, ptr %fieldLimit, align 8
  ret ptr %arrayidx
}